target datalayout = "e-m:e-p270:32:32-p271:32:32-p272:64:64-i64:64-i128:128-f80:128-n8:16:32:64-S128"
target triple = "x86_64-pc-linux-gnu"

; Function Attrs: nounwind uwtable
define hidden i32 @lh_strhash(ptr noundef %0) #0 {
  %2 = alloca i32, align 4
  %3 = alloca ptr, align 8
  %4 = alloca i64, align 8
  %5 = alloca i64, align 8
  %6 = alloca i64, align 8
  %7 = alloca i32, align 4
  %8 = alloca i32, align 4
  store ptr %0, ptr %3, align 8, !tbaa !20
  call void @llvm.lifetime.start.p0(i64 8, ptr %4) #6
  store i64 0, ptr %4, align 8, !tbaa !22
  call void @llvm.lifetime.start.p0(i64 8, ptr %5) #6
  call void @llvm.lifetime.start.p0(i64 8, ptr %6) #6
  call void @llvm.lifetime.start.p0(i64 4, ptr %7) #6
  %9 = load ptr, ptr %3, align 8, !tbaa !20
  %10 = icmp eq ptr %9, null
  br i1 %10, label %16, label %11

11:                                               ; preds = %1
  %12 = load ptr, ptr %3, align 8, !tbaa !20
  %13 = load i8, ptr %12, align 1, !tbaa !23
  %14 = sext i8 %13 to i32
  %15 = icmp eq i32 %14, 0
  br i1 %15, label %16, label %19

16:                                               ; preds = %11, %1
  %17 = load i64, ptr %4, align 8, !tbaa !22
  %18 = trunc i64 %17 to i32
  store i32 %18, ptr %2, align 4
  store i32 1, ptr %8, align 4
  br label %63

19:                                               ; preds = %11
  store i64 256, ptr %5, align 8, !tbaa !22
  br label %20

20:                                               ; preds = %24, %19
  %21 = load ptr, ptr %3, align 8, !tbaa !20
  %22 = load i8, ptr %21, align 1, !tbaa !23
  %23 = icmp ne i8 %22, 0
  br i1 %23, label %24, label %57

24:                                               ; preds = %20
  %25 = load i64, ptr %5, align 8, !tbaa !22
  %26 = load ptr, ptr %3, align 8, !tbaa !20
  %27 = load i8, ptr %26, align 1, !tbaa !23
  %28 = sext i8 %27 to i64
  %29 = or i64 %25, %28
  store i64 %29, ptr %6, align 8, !tbaa !22
  %30 = load i64, ptr %5, align 8, !tbaa !22
  %31 = add nsw i64 %30, 256
  store i64 %31, ptr %5, align 8, !tbaa !22
  %32 = load i64, ptr %6, align 8, !tbaa !22
  %33 = lshr i64 %32, 2
  %34 = load i64, ptr %6, align 8, !tbaa !22
  %35 = xor i64 %33, %34
  %36 = trunc i64 %35 to i32
  %37 = and i32 %36, 15
  store i32 %37, ptr %7, align 4, !tbaa !24
  %38 = load i64, ptr %4, align 8, !tbaa !22
  %39 = load i32, ptr %7, align 4, !tbaa !24
  %40 = zext i32 %39 to i64
  %41 = shl i64 %38, %40
  %42 = load i64, ptr %4, align 8, !tbaa !22
  %43 = load i32, ptr %7, align 4, !tbaa !24
  %44 = sub nsw i32 32, %43
  %45 = zext i32 %44 to i64
  %46 = lshr i64 %42, %45
  %47 = or i64 %41, %46
  store i64 %47, ptr %4, align 8, !tbaa !22
  %48 = load i64, ptr %4, align 8, !tbaa !22
  %49 = and i64 %48, 4294967295
  store i64 %49, ptr %4, align 8, !tbaa !22
  %50 = load i64, ptr %6, align 8, !tbaa !22
  %51 = load i64, ptr %6, align 8, !tbaa !22
  %52 = mul i64 %50, %51
  %53 = load i64, ptr %4, align 8, !tbaa !22
  %54 = xor i64 %53, %52
  store i64 %54, ptr %4, align 8, !tbaa !22
  %55 = load ptr, ptr %3, align 8, !tbaa !20
  %56 = getelementptr inbounds nuw i8, ptr %55, i32 1
  store ptr %56, ptr %3, align 8, !tbaa !20
  br label %20, !llvm.loop !25

57:                                               ; preds = %20
  %58 = load i64, ptr %4, align 8, !tbaa !22
  %59 = lshr i64 %58, 16
  %60 = load i64, ptr %4, align 8, !tbaa !22
  %61 = xor i64 %59, %60
  %62 = trunc i64 %61 to i32
  store i32 %62, ptr %2, align 4
  store i32 1, ptr %8, align 4
  br label %63

63:                                               ; preds = %57, %16
  call void @llvm.lifetime.end.p0(i64 4, ptr %7) #6
  call void @llvm.lifetime.end.p0(i64 8, ptr %6) #6
  call void @llvm.lifetime.end.p0(i64 8, ptr %5) #6
  call void @llvm.lifetime.end.p0(i64 8, ptr %4) #6
  %64 = load i32, ptr %2, align 4
  ret i32 %64
}