; Function Attrs: nofree norecurse nosync nounwind memory(argmem: read) uwtable
define hidden i32 @lh_strhash(ptr noundef readonly captures(address_is_null) %0) #4 {
  %2 = icmp eq ptr %0, null
  br i1 %2, label %25, label %3

3:                                                ; preds = %1
  %4 = load i8, ptr %0, align 1, !tbaa !17
  %5 = icmp eq i8 %4, 0
  br i1 %5, label %25, label %.preheader

.preheader:                                       ; preds = %3, %.preheader
  %.02027 = phi ptr [ %20, %.preheader ], [ %0, %3 ]
  %.02126 = phi i64 [ %9, %.preheader ], [ 256, %3 ]
  %.02225 = phi i64 [ %19, %.preheader ], [ 0, %3 ]
  %6 = phi i8 [ %.pr, %.preheader ], [ %4, %3 ]
  %7 = sext i8 %6 to i64
  %8 = or i64 %.02126, %7
  %9 = add nuw nsw i64 %.02126, 256
  %10 = lshr i64 %7, 2
  %11 = xor i64 %10, %7
  %12 = and i64 %11, 15
  %13 = shl i64 %.02225, %12
  %14 = sub nuw nsw i64 32, %12
  %15 = lshr i64 %.02225, %14
  %16 = or i64 %15, %13
  %17 = and i64 %16, 4294967295
  %18 = mul i64 %8, %8
  %19 = xor i64 %17, %18
  %20 = getelementptr inbounds nuw i8, ptr %.02027, i64 1
  %.pr = load i8, ptr %20, align 1, !tbaa !17
  %.not = icmp eq i8 %.pr, 0
  br i1 %.not, label %21, label %.preheader, !llvm.loop !18

21:                                               ; preds = %.preheader
  %22 = lshr i64 %19, 16
  %23 = xor i64 %22, %19
  %24 = trunc i64 %23 to i32
  br label %25

25:                                               ; preds = %1, %3, %21
  %.0 = phi i32 [ %24, %21 ], [ 0, %3 ], [ 0, %1 ]
  ret i32 %.0
}